target datalayout = "e-m:e-p270:32:32-p271:32:32-p272:64:64-i64:64-i128:128-f80:128-n8:16:32:64-S128"
target triple = "x86_64-unknown-linux-gnu"

%"struct.std::__cxx11::basic_string<char>::_Alloc_hider" = type { ptr }
%"class.std::__cxx11::basic_string" = type { %"struct.std::__cxx11::basic_string<char>::_Alloc_hider", i64, %union.anon }
%union.anon = type { i64, [8 x i8] }

; Function Attrs: mustprogress uwtable
define dso_local void @_ZN6google8protobuf29BinaryAndJsonConformanceSuite31RunValidProtobufTestWithMessageERKNSt7__cxx1112basic_stringIcSt11char_traitsIcESaIcEEENS0_20ConformanceTestSuite16ConformanceLevelEPKNS0_7MessageES9_b(ptr noundef nonnull align 8 dereferenceable(440) %this, ptr noundef nonnull align 8 dereferenceable(32) %test_name, i32 noundef %level, ptr noundef %input, ptr noundef nonnull align 8 dereferenceable(32) %equivalent_text_format, i1 noundef zeroext %is_proto3) #4 align 2 personality ptr @__gxx_personality_v0 {
entry:
  %this.addr = alloca ptr, align 8
  %test_name.addr = alloca ptr, align 8
  %level.addr = alloca i32, align 4
  %input.addr = alloca ptr, align 8
  %equivalent_text_format.addr = alloca ptr, align 8
  %is_proto3.addr = alloca i8, align 1
  %ref.tmp = alloca %"class.std::__cxx11::basic_string", align 8
  %exn.slot = alloca ptr, align 8
  %ehselector.slot = alloca i32, align 4
  store ptr %this, ptr %this.addr, align 8
  store ptr %test_name, ptr %test_name.addr, align 8
  store i32 %level, ptr %level.addr, align 4
  store ptr %input, ptr %input.addr, align 8
  store ptr %equivalent_text_format, ptr %equivalent_text_format.addr, align 8
  %frombool = zext i1 %is_proto3 to i8
  store i8 %frombool, ptr %is_proto3.addr, align 1
  %this1 = load ptr, ptr %this.addr, align 8
  %0 = load ptr, ptr %test_name.addr, align 8
  %1 = load i32, ptr %level.addr, align 4
  %2 = load ptr, ptr %input.addr, align 8
  call void @_ZNK6google8protobuf11MessageLite17SerializeAsStringB5cxx11Ev(ptr sret(%"class.std::__cxx11::basic_string") align 8 %ref.tmp, ptr noundef nonnull align 8 dereferenceable(16) %2)
  %3 = load ptr, ptr %equivalent_text_format.addr, align 8
  %4 = load i8, ptr %is_proto3.addr, align 1
  %tobool = trunc i8 %4 to i1
  invoke void @_ZN6google8protobuf29BinaryAndJsonConformanceSuite20RunValidProtobufTestERKNSt7__cxx1112basic_stringIcSt11char_traitsIcESaIcEEENS0_20ConformanceTestSuite16ConformanceLevelES9_S9_b(ptr noundef nonnull align 8 dereferenceable(440) %this1, ptr noundef nonnull align 8 dereferenceable(32) %0, i32 noundef %1, ptr noundef nonnull align 8 dereferenceable(32) %ref.tmp, ptr noundef nonnull align 8 dereferenceable(32) %3, i1 noundef zeroext %tobool)
          to label %invoke.cont unwind label %lpad

invoke.cont:                                      ; preds = %entry
  call void @_ZNSt7__cxx1112basic_stringIcSt11char_traitsIcESaIcEED2Ev(ptr noundef nonnull align 8 dereferenceable(32) %ref.tmp) #3
  ret void

lpad:                                             ; preds = %entry
  %5 = landingpad { ptr, i32 }
          cleanup
  %6 = extractvalue { ptr, i32 } %5, 0
  store ptr %6, ptr %exn.slot, align 8
  %7 = extractvalue { ptr, i32 } %5, 1
  store i32 %7, ptr %ehselector.slot, align 4
  call void @_ZNSt7__cxx1112basic_stringIcSt11char_traitsIcESaIcEED2Ev(ptr noundef nonnull align 8 dereferenceable(32) %ref.tmp) #3
  br label %eh.resume

eh.resume:                                        ; preds = %lpad
  %exn = load ptr, ptr %exn.slot, align 8
  %sel = load i32, ptr %ehselector.slot, align 4
  %lpad.val = insertvalue { ptr, i32 } poison, ptr %exn, 0
  %lpad.val2 = insertvalue { ptr, i32 } %lpad.val, i32 %sel, 1
  resume { ptr, i32 } %lpad.val2
}