; Function Attrs: mustprogress uwtable
define dso_local void @_ZN6google8protobuf29BinaryAndJsonConformanceSuite31RunValidProtobufTestWithMessageERKNSt7__cxx1112basic_stringIcSt11char_traitsIcESaIcEEENS0_20ConformanceTestSuite16ConformanceLevelEPKNS0_7MessageES9_b(ptr noundef nonnull align 8 dereferenceable(440) %this, ptr noundef nonnull align 8 dereferenceable(32) %test_name, i32 noundef %level, ptr noundef nonnull %input, ptr noundef nonnull align 8 dereferenceable(32) %equivalent_text_format, i1 noundef zeroext %is_proto3) local_unnamed_addr #3 align 2 personality ptr @__gxx_personality_v0 {
entry:
  %ref.tmp = alloca %"class.std::__cxx11::basic_string", align 8
  call void @_ZNK6google8protobuf11MessageLite17SerializeAsStringB5cxx11Ev(ptr nonnull sret(%"class.std::__cxx11::basic_string") align 8 %ref.tmp, ptr noundef nonnull align 8 dereferenceable(16) %input)
  invoke void @_ZN6google8protobuf29BinaryAndJsonConformanceSuite20RunValidProtobufTestERKNSt7__cxx1112basic_stringIcSt11char_traitsIcESaIcEEENS0_20ConformanceTestSuite16ConformanceLevelES9_S9_b(ptr noundef nonnull align 8 dereferenceable(440) %this, ptr noundef nonnull align 8 dereferenceable(32) %test_name, i32 noundef %level, ptr noundef nonnull align 8 dereferenceable(32) %ref.tmp, ptr noundef nonnull align 8 dereferenceable(32) %equivalent_text_format, i1 noundef zeroext %is_proto3)
          to label %invoke.cont unwind label %lpad

invoke.cont:                                      ; preds = %entry
  %0 = load ptr, ptr %ref.tmp, align 8
  %1 = getelementptr inbounds i8, ptr %ref.tmp, i64 16
  %cmp.i.i.i = icmp eq ptr %0, %1
  br i1 %cmp.i.i.i, label %_ZNKSt7__cxx1112basic_stringIcSt11char_traitsIcESaIcEE11_M_is_localEv.exit.thread.i.i, label %if.then.i.i

_ZNKSt7__cxx1112basic_stringIcSt11char_traitsIcESaIcEE11_M_is_localEv.exit.thread.i.i: ; preds = %invoke.cont
  %_M_string_length.i.i.i = getelementptr inbounds i8, ptr %ref.tmp, i64 8
  %2 = load i64, ptr %_M_string_length.i.i.i, align 8
  %cmp3.i.i.i = icmp ult i64 %2, 16
  call void @llvm.assume(i1 %cmp3.i.i.i)
  br label %_ZNSt7__cxx1112basic_stringIcSt11char_traitsIcESaIcEED2Ev.exit

if.then.i.i:                                      ; preds = %invoke.cont
  call void @_ZdlPv(ptr noundef %0) #23
  br label %_ZNSt7__cxx1112basic_stringIcSt11char_traitsIcESaIcEED2Ev.exit

_ZNSt7__cxx1112basic_stringIcSt11char_traitsIcESaIcEED2Ev.exit: ; preds = %_ZNKSt7__cxx1112basic_stringIcSt11char_traitsIcESaIcEE11_M_is_localEv.exit.thread.i.i, %if.then.i.i
  call void @_ZNSaIcED2Ev(ptr noundef nonnull align 1 dereferenceable(1) %ref.tmp) #22
  ret void

lpad:                                             ; preds = %entry
  %3 = landingpad { ptr, i32 }
          cleanup
  call void @_ZNSt7__cxx1112basic_stringIcSt11char_traitsIcESaIcEED2Ev(ptr noundef nonnull align 8 dereferenceable(32) %ref.tmp) #22
  resume { ptr, i32 } %3
}